target datalayout = "e-m:e-p270:32:32-p271:32:32-p272:64:64-i64:64-i128:128-f80:128-n8:16:32:64-S128"
target triple = "x86_64-pc-linux-gnu"

%struct.cache_bin_info_s = type { i16 }
%struct.tcache_slow_s = type { %struct.anon, %struct.cache_bin_array_descriptor_s, ptr, i32, i32, [36 x i8], [36 x i8], [36 x i8], ptr, ptr }
%struct.anon = type { ptr, ptr }
%struct.cache_bin_array_descriptor_s = type { %struct.anon.0, ptr }
%struct.anon.0 = type { ptr, ptr }
%struct.tcache_s = type { ptr, [73 x %struct.cache_bin_s] }
%struct.cache_bin_s = type { ptr, %struct.cache_bin_stats_s, i16, i16, i16, %struct.cache_bin_info_s }
%struct.cache_bin_stats_s = type { i64 }

; Function Attrs: alwaysinline nounwind uwtable
define internal ptr @cache_bin_alloc_impl(ptr noundef %0, ptr noundef %1, i1 noundef zeroext %2) #1 {
  %4 = alloca ptr, align 8
  %5 = alloca ptr, align 8
  %6 = alloca ptr, align 8
  %7 = alloca i8, align 1
  %8 = alloca ptr, align 8
  %9 = alloca i16, align 2
  %10 = alloca ptr, align 8
  %11 = alloca i32, align 4
  store ptr %0, ptr %5, align 8, !tbaa !31
  store ptr %1, ptr %6, align 8, !tbaa !38
  %12 = zext i1 %2 to i8
  store i8 %12, ptr %7, align 1, !tbaa !30
  call void @llvm.lifetime.start.p0(i64 8, ptr %8) #13
  %13 = load ptr, ptr %5, align 8, !tbaa !31
  %14 = getelementptr inbounds nuw %struct.cache_bin_s, ptr %13, i32 0, i32 0
  %15 = load ptr, ptr %14, align 8, !tbaa !44
  %16 = load ptr, ptr %15, align 8, !tbaa !8
  store ptr %16, ptr %8, align 8, !tbaa !8
  call void @llvm.lifetime.start.p0(i64 2, ptr %9) #13
  %17 = load ptr, ptr %5, align 8, !tbaa !31
  %18 = getelementptr inbounds nuw %struct.cache_bin_s, ptr %17, i32 0, i32 0
  %19 = load ptr, ptr %18, align 8, !tbaa !44
  %20 = ptrtoint ptr %19 to i64
  %21 = trunc i64 %20 to i16
  store i16 %21, ptr %9, align 2, !tbaa !34
  call void @llvm.lifetime.start.p0(i64 8, ptr %10) #13
  %22 = load ptr, ptr %5, align 8, !tbaa !31
  %23 = getelementptr inbounds nuw %struct.cache_bin_s, ptr %22, i32 0, i32 0
  %24 = load ptr, ptr %23, align 8, !tbaa !44
  %25 = getelementptr inbounds ptr, ptr %24, i64 1
  store ptr %25, ptr %10, align 8, !tbaa !8
  %26 = load i16, ptr %9, align 2, !tbaa !34
  %27 = zext i16 %26 to i32
  %28 = load ptr, ptr %5, align 8, !tbaa !31
  %29 = getelementptr inbounds nuw %struct.cache_bin_s, ptr %28, i32 0, i32 2
  %30 = load i16, ptr %29, align 8, !tbaa !165
  %31 = zext i16 %30 to i32
  %32 = icmp ne i32 %27, %31
  %33 = xor i1 %32, true
  %34 = xor i1 %33, true
  %35 = zext i1 %34 to i32
  %36 = sext i32 %35 to i64
  %37 = call i64 @llvm.expect.i64(i64 %36, i64 1)
  %38 = icmp ne i64 %37, 0
  br i1 %38, label %39, label %45

39:                                               ; preds = %3
  %40 = load ptr, ptr %10, align 8, !tbaa !8
  %41 = load ptr, ptr %5, align 8, !tbaa !31
  %42 = getelementptr inbounds nuw %struct.cache_bin_s, ptr %41, i32 0, i32 0
  store ptr %40, ptr %42, align 8, !tbaa !44
  %43 = load ptr, ptr %6, align 8, !tbaa !38
  store i8 1, ptr %43, align 1, !tbaa !30
  %44 = load ptr, ptr %8, align 8, !tbaa !8
  store ptr %44, ptr %4, align 8
  store i32 1, ptr %11, align 4
  br label %77

45:                                               ; preds = %3
  %46 = load i8, ptr %7, align 1, !tbaa !30, !range !32, !noundef !33
  %47 = trunc i8 %46 to i1
  br i1 %47, label %50, label %48

48:                                               ; preds = %45
  %49 = load ptr, ptr %6, align 8, !tbaa !38
  store i8 0, ptr %49, align 1, !tbaa !30
  store ptr null, ptr %4, align 8
  store i32 1, ptr %11, align 4
  br label %77

50:                                               ; preds = %45
  %51 = load i16, ptr %9, align 2, !tbaa !34
  %52 = zext i16 %51 to i32
  %53 = load ptr, ptr %5, align 8, !tbaa !31
  %54 = getelementptr inbounds nuw %struct.cache_bin_s, ptr %53, i32 0, i32 4
  %55 = load i16, ptr %54, align 4, !tbaa !166
  %56 = zext i16 %55 to i32
  %57 = icmp ne i32 %52, %56
  %58 = xor i1 %57, true
  %59 = xor i1 %58, true
  %60 = zext i1 %59 to i32
  %61 = sext i32 %60 to i64
  %62 = call i64 @llvm.expect.i64(i64 %61, i64 1)
  %63 = icmp ne i64 %62, 0
  br i1 %63, label %64, label %75

64:                                               ; preds = %50
  %65 = load ptr, ptr %10, align 8, !tbaa !8
  %66 = load ptr, ptr %5, align 8, !tbaa !31
  %67 = getelementptr inbounds nuw %struct.cache_bin_s, ptr %66, i32 0, i32 0
  store ptr %65, ptr %67, align 8, !tbaa !44
  %68 = load ptr, ptr %10, align 8, !tbaa !8
  %69 = ptrtoint ptr %68 to i64
  %70 = trunc i64 %69 to i16
  %71 = load ptr, ptr %5, align 8, !tbaa !31
  %72 = getelementptr inbounds nuw %struct.cache_bin_s, ptr %71, i32 0, i32 2
  store i16 %70, ptr %72, align 8, !tbaa !165
  %73 = load ptr, ptr %6, align 8, !tbaa !38
  store i8 1, ptr %73, align 1, !tbaa !30
  %74 = load ptr, ptr %8, align 8, !tbaa !8
  store ptr %74, ptr %4, align 8
  store i32 1, ptr %11, align 4
  br label %77

75:                                               ; preds = %50
  %76 = load ptr, ptr %6, align 8, !tbaa !38
  store i8 0, ptr %76, align 1, !tbaa !30
  store ptr null, ptr %4, align 8
  store i32 1, ptr %11, align 4
  br label %77

77:                                               ; preds = %75, %64, %48, %39
  call void @llvm.lifetime.end.p0(i64 8, ptr %10) #13
  call void @llvm.lifetime.end.p0(i64 2, ptr %9) #13
  call void @llvm.lifetime.end.p0(i64 8, ptr %8) #13
  %78 = load ptr, ptr %4, align 8
  ret ptr %78
}

; Function Attrs: inlinehint nounwind uwtable
define internal zeroext i16 @cache_bin_ncached_max_get_unsafe(ptr noundef %0) #3 {
  %2 = alloca ptr, align 8
  store ptr %0, ptr %2, align 8, !tbaa !31
  %3 = load ptr, ptr %2, align 8, !tbaa !31
  %4 = getelementptr inbounds nuw %struct.cache_bin_s, ptr %3, i32 0, i32 5
  %5 = getelementptr inbounds nuw %struct.cache_bin_info_s, ptr %4, i32 0, i32 0
  %6 = load i16, ptr %5, align 2, !tbaa !167
  ret i16 %6
}

; Function Attrs: alwaysinline nounwind uwtable
define internal ptr @cache_bin_alloc(ptr noundef %0, ptr noundef %1) #1 {
  %3 = alloca ptr, align 8
  %4 = alloca ptr, align 8
  store ptr %0, ptr %3, align 8, !tbaa !31
  store ptr %1, ptr %4, align 8, !tbaa !38
  %5 = load ptr, ptr %3, align 8, !tbaa !31
  %6 = load ptr, ptr %4, align 8, !tbaa !38
  %7 = call ptr @cache_bin_alloc_impl(ptr noundef %5, ptr noundef %6, i1 noundef zeroext true)
  ret ptr %7
}

; Function Attrs: inlinehint nounwind uwtable
define internal zeroext i16 @cache_bin_ncached_max_get(ptr noundef %0) #3 {
  %2 = alloca ptr, align 8
  store ptr %0, ptr %2, align 8, !tbaa !31
  br label %3

3:                                                ; preds = %1
  br label %4

4:                                                ; preds = %3
  %5 = load ptr, ptr %2, align 8, !tbaa !31
  %6 = call zeroext i16 @cache_bin_ncached_max_get_unsafe(ptr noundef %5)
  ret i16 %6
}

; Function Attrs: nounwind uwtable
define ptr @duckdb_je_tcache_alloc_small_hard(ptr noundef %0, ptr noundef %1, ptr noundef %2, ptr noundef %3, i32 noundef %4, ptr noundef %5) #0 {
  %7 = alloca ptr, align 8
  %8 = alloca ptr, align 8
  %9 = alloca ptr, align 8
  %10 = alloca ptr, align 8
  %11 = alloca i32, align 4
  %12 = alloca ptr, align 8
  %13 = alloca ptr, align 8
  %14 = alloca ptr, align 8
  %15 = alloca i16, align 2
  store ptr %0, ptr %7, align 8, !tbaa !3
  store ptr %1, ptr %8, align 8, !tbaa !37
  store ptr %2, ptr %9, align 8, !tbaa !17
  store ptr %3, ptr %10, align 8, !tbaa !31
  store i32 %4, ptr %11, align 4, !tbaa !29
  store ptr %5, ptr %12, align 8, !tbaa !38
  call void @llvm.lifetime.start.p0(i64 8, ptr %13) #13
  %16 = load ptr, ptr %9, align 8, !tbaa !17
  %17 = getelementptr inbounds nuw %struct.tcache_s, ptr %16, i32 0, i32 0
  %18 = load ptr, ptr %17, align 8, !tbaa !40
  store ptr %18, ptr %13, align 8, !tbaa !19
  call void @llvm.lifetime.start.p0(i64 8, ptr %14) #13
  br label %19

19:                                               ; preds = %6
  br label %20

20:                                               ; preds = %19
  br label %21

21:                                               ; preds = %20
  br label %22

22:                                               ; preds = %21
  br label %23

23:                                               ; preds = %22
  br label %24

24:                                               ; preds = %23
  call void @llvm.lifetime.start.p0(i64 2, ptr %15) #13
  %25 = load ptr, ptr %10, align 8, !tbaa !31
  %26 = call zeroext i16 @cache_bin_ncached_max_get(ptr noundef %25)
  %27 = zext i16 %26 to i32
  %28 = load ptr, ptr %13, align 8, !tbaa !19
  %29 = getelementptr inbounds nuw %struct.tcache_slow_s, ptr %28, i32 0, i32 5
  %30 = load i32, ptr %11, align 4, !tbaa !29
  %31 = zext i32 %30 to i64
  %32 = getelementptr inbounds nuw [36 x i8], ptr %29, i64 0, i64 %31
  %33 = load i8, ptr %32, align 1, !tbaa !36
  %34 = zext i8 %33 to i32
  %35 = ashr i32 %27, %34
  %36 = trunc i32 %35 to i16
  store i16 %36, ptr %15, align 2, !tbaa !34
  %37 = load i16, ptr %15, align 2, !tbaa !34
  %38 = zext i16 %37 to i32
  %39 = icmp eq i32 %38, 0
  br i1 %39, label %40, label %41

40:                                               ; preds = %24
  store i16 1, ptr %15, align 2, !tbaa !34
  br label %41

41:                                               ; preds = %40, %24
  %42 = load ptr, ptr %7, align 8, !tbaa !3
  %43 = load ptr, ptr %8, align 8, !tbaa !37
  %44 = load ptr, ptr %10, align 8, !tbaa !31
  %45 = load i32, ptr %11, align 4, !tbaa !29
  %46 = load i16, ptr %15, align 2, !tbaa !34
  call void @duckdb_je_arena_cache_bin_fill_small(ptr noundef %42, ptr noundef %43, ptr noundef %44, i32 noundef %45, i16 noundef zeroext %46)
  %47 = load ptr, ptr %13, align 8, !tbaa !19
  %48 = getelementptr inbounds nuw %struct.tcache_slow_s, ptr %47, i32 0, i32 6
  %49 = load i32, ptr %11, align 4, !tbaa !29
  %50 = zext i32 %49 to i64
  %51 = getelementptr inbounds nuw [36 x i8], ptr %48, i64 0, i64 %50
  store i8 1, ptr %51, align 1, !tbaa !30
  %52 = load ptr, ptr %10, align 8, !tbaa !31
  %53 = load ptr, ptr %12, align 8, !tbaa !38
  %54 = call ptr @cache_bin_alloc(ptr noundef %52, ptr noundef %53)
  store ptr %54, ptr %14, align 8, !tbaa !8
  %55 = load ptr, ptr %14, align 8, !tbaa !8
  call void @llvm.lifetime.end.p0(i64 2, ptr %15) #13
  call void @llvm.lifetime.end.p0(i64 8, ptr %14) #13
  call void @llvm.lifetime.end.p0(i64 8, ptr %13) #13
  ret ptr %55
}