; Function Attrs: nounwind uwtable
define ptr @duckdb_je_tcache_alloc_small_hard(ptr noundef %0, ptr noundef %1, ptr noundef readonly captures(none) %2, ptr noundef %3, i32 noundef %4, ptr noundef writeonly captures(none) initializes((0, 1)) %5) local_unnamed_addr #0 {
  %7 = load ptr, ptr %2, align 8, !tbaa !42
  %8 = getelementptr i8, ptr %3, i64 22
  %.val = load i16, ptr %8, align 2, !tbaa !40
  %9 = zext i16 %.val to i32
  %10 = getelementptr inbounds nuw i8, ptr %7, i64 56
  %11 = zext i32 %4 to i64
  %12 = getelementptr inbounds nuw [36 x i8], ptr %10, i64 0, i64 %11
  %13 = load i8, ptr %12, align 1, !tbaa !39
  %14 = zext nneg i8 %13 to i32
  %15 = lshr i32 %9, %14
  %16 = trunc nuw i32 %15 to i16
  %17 = icmp eq i32 %15, 0
  %spec.store.select = select i1 %17, i16 1, i16 %16
  tail call void @duckdb_je_arena_cache_bin_fill_small(ptr noundef %0, ptr noundef %1, ptr noundef %3, i32 noundef %4, i16 noundef zeroext %spec.store.select) #16
  %18 = getelementptr inbounds nuw i8, ptr %7, i64 92
  %19 = getelementptr inbounds nuw [36 x i8], ptr %18, i64 0, i64 %11
  store i8 1, ptr %19, align 1, !tbaa !17
  %20 = load ptr, ptr %3, align 8, !tbaa !32
  %21 = load ptr, ptr %20, align 8, !tbaa !44
  %22 = ptrtoint ptr %20 to i64
  %23 = getelementptr inbounds nuw i8, ptr %20, i64 8
  %24 = getelementptr inbounds nuw i8, ptr %3, i64 16
  %25 = load i16, ptr %24, align 8, !tbaa !37
  %26 = trunc i64 %22 to i16
  %.not.i = icmp eq i16 %25, %26
  br i1 %.not.i, label %28, label %27, !prof !3

27:                                               ; preds = %6
  store ptr %23, ptr %3, align 8, !tbaa !32
  br label %cache_bin_alloc_impl.exit

28:                                               ; preds = %6
  %29 = getelementptr inbounds nuw i8, ptr %3, i64 20
  %30 = load i16, ptr %29, align 4, !tbaa !38
  %.not21.i = icmp eq i16 %30, %25
  br i1 %.not21.i, label %cache_bin_alloc_impl.exit, label %31, !prof !3

31:                                               ; preds = %28
  store ptr %23, ptr %3, align 8, !tbaa !32
  %32 = ptrtoint ptr %23 to i64
  %33 = trunc i64 %32 to i16
  store i16 %33, ptr %24, align 8, !tbaa !37
  br label %cache_bin_alloc_impl.exit

cache_bin_alloc_impl.exit:                        ; preds = %28, %27, %31
  %.sink = phi i8 [ 1, %27 ], [ 1, %31 ], [ 0, %28 ]
  %.0.i = phi ptr [ %21, %27 ], [ %21, %31 ], [ null, %28 ]
  store i8 %.sink, ptr %5, align 1, !tbaa !17
  ret ptr %.0.i
}